; ModuleID = '35/696.c'
source_filename = "35/696.c"
target datalayout = "e-m:e-p270:32:32-p271:32:32-p272:64:64-i64:64-f80:128-n8:16:32:64-S128"
target triple = "x86_64-pc-linux-gnu"

@.str = private unnamed_addr constant [7 x i8] c"%d,%d\0A\00", align 1
@.str.1 = private unnamed_addr constant [4 x i8] c"%d \00", align 1
@.str.2 = private unnamed_addr constant [2 x i8] c"\0A\00", align 1
@.str.3 = private unnamed_addr constant [6 x i8] c"%d+%d\00", align 1
@.str.4 = private unnamed_addr constant [3 x i8] c"No\00", align 1

; Function Attrs: noinline nounwind uwtable
define dso_local i32 @main() #0 {
  %1 = alloca i32, align 4
  %2 = alloca [8 x [8 x i32]], align 16
  %3 = alloca [8 x i32], align 16
  %4 = alloca [8 x i32], align 16
  %5 = alloca i32, align 4
  %6 = alloca i32, align 4
  %7 = alloca i32, align 4
  %8 = alloca i32, align 4
  %9 = alloca i32, align 4
  %10 = alloca i32, align 4
  %11 = alloca i32, align 4
  %12 = alloca i32, align 4
  store i32 0, i32* %1, align 4
  store i32 0, i32* %7, align 4
  store i32 0, i32* %10, align 4
  %13 = call i32 (i8*, ...) @__isoc99_scanf(i8* getelementptr inbounds ([7 x i8], [7 x i8]* @.str, i64 0, i64 0), i32* %8, i32* %9)
  store i32 0, i32* %5, align 4
  br label %14

14:                                               ; preds = %36, %0
  %15 = load i32, i32* %5, align 4
  %16 = load i32, i32* %8, align 4
  %17 = icmp slt i32 %15, %16
  br i1 %17, label %18, label %39

18:                                               ; preds = %14
  store i32 0, i32* %6, align 4
  br label %19

19:                                               ; preds = %31, %18
  %20 = load i32, i32* %6, align 4
  %21 = load i32, i32* %9, align 4
  %22 = icmp slt i32 %20, %21
  br i1 %22, label %23, label %34

23:                                               ; preds = %19
  %24 = load i32, i32* %5, align 4
  %25 = sext i32 %24 to i64
  %26 = getelementptr inbounds [8 x [8 x i32]], [8 x [8 x i32]]* %2, i64 0, i64 %25
  %27 = load i32, i32* %6, align 4
  %28 = sext i32 %27 to i64
  %29 = getelementptr inbounds [8 x i32], [8 x i32]* %26, i64 0, i64 %28
  %30 = call i32 (i8*, ...) @__isoc99_scanf(i8* getelementptr inbounds ([4 x i8], [4 x i8]* @.str.1, i64 0, i64 0), i32* %29)
  br label %31

31:                                               ; preds = %23
  %32 = load i32, i32* %6, align 4
  %33 = add nsw i32 %32, 1
  store i32 %33, i32* %6, align 4
  br label %19

34:                                               ; preds = %19
  %35 = call i32 (i8*, ...) @__isoc99_scanf(i8* getelementptr inbounds ([2 x i8], [2 x i8]* @.str.2, i64 0, i64 0))
  br label %36

36:                                               ; preds = %34
  %37 = load i32, i32* %5, align 4
  %38 = add nsw i32 %37, 1
  store i32 %38, i32* %5, align 4
  br label %14

39:                                               ; preds = %14
  store i32 0, i32* %5, align 4
  br label %40

40:                                               ; preds = %136, %39
  %41 = load i32, i32* %5, align 4
  %42 = load i32, i32* %8, align 4
  %43 = icmp slt i32 %41, %42
  br i1 %43, label %44, label %139

44:                                               ; preds = %40
  store i32 0, i32* %6, align 4
  br label %45

45:                                               ; preds = %132, %44
  %46 = load i32, i32* %6, align 4
  %47 = load i32, i32* %9, align 4
  %48 = sub nsw i32 %47, 1
  %49 = icmp slt i32 %46, %48
  br i1 %49, label %50, label %135

50:                                               ; preds = %45
  %51 = load i32, i32* %5, align 4
  %52 = sext i32 %51 to i64
  %53 = getelementptr inbounds [8 x [8 x i32]], [8 x [8 x i32]]* %2, i64 0, i64 %52
  %54 = load i32, i32* %6, align 4
  %55 = sext i32 %54 to i64
  %56 = getelementptr inbounds [8 x i32], [8 x i32]* %53, i64 0, i64 %55
  %57 = load i32, i32* %56, align 4
  %58 = load i32, i32* %5, align 4
  %59 = sext i32 %58 to i64
  %60 = getelementptr inbounds [8 x [8 x i32]], [8 x [8 x i32]]* %2, i64 0, i64 %59
  %61 = load i32, i32* %6, align 4
  %62 = add nsw i32 %61, 1
  %63 = sext i32 %62 to i64
  %64 = getelementptr inbounds [8 x i32], [8 x i32]* %60, i64 0, i64 %63
  %65 = load i32, i32* %64, align 4
  %66 = icmp sge i32 %57, %65
  br i1 %66, label %67, label %89

67:                                               ; preds = %50
  %68 = load i32, i32* %5, align 4
  %69 = sext i32 %68 to i64
  %70 = getelementptr inbounds [8 x [8 x i32]], [8 x [8 x i32]]* %2, i64 0, i64 %69
  %71 = load i32, i32* %6, align 4
  %72 = sext i32 %71 to i64
  %73 = getelementptr inbounds [8 x i32], [8 x i32]* %70, i64 0, i64 %72
  %74 = load i32, i32* %73, align 4
  %75 = load i32, i32* %10, align 4
  %76 = icmp sge i32 %74, %75
  br i1 %76, label %77, label %89

77:                                               ; preds = %67
  %78 = load i32, i32* %5, align 4
  %79 = sext i32 %78 to i64
  %80 = getelementptr inbounds [8 x [8 x i32]], [8 x [8 x i32]]* %2, i64 0, i64 %79
  %81 = load i32, i32* %6, align 4
  %82 = sext i32 %81 to i64
  %83 = getelementptr inbounds [8 x i32], [8 x i32]* %80, i64 0, i64 %82
  %84 = load i32, i32* %83, align 4
  store i32 %84, i32* %10, align 4
  %85 = load i32, i32* %6, align 4
  %86 = load i32, i32* %5, align 4
  %87 = sext i32 %86 to i64
  %88 = getelementptr inbounds [8 x i32], [8 x i32]* %3, i64 0, i64 %87
  store i32 %85, i32* %88, align 4
  br label %89

89:                                               ; preds = %77, %67, %50
  %90 = load i32, i32* %5, align 4
  %91 = sext i32 %90 to i64
  %92 = getelementptr inbounds [8 x [8 x i32]], [8 x [8 x i32]]* %2, i64 0, i64 %91
  %93 = load i32, i32* %6, align 4
  %94 = add nsw i32 %93, 1
  %95 = sext i32 %94 to i64
  %96 = getelementptr inbounds [8 x i32], [8 x i32]* %92, i64 0, i64 %95
  %97 = load i32, i32* %96, align 4
  %98 = load i32, i32* %5, align 4
  %99 = sext i32 %98 to i64
  %100 = getelementptr inbounds [8 x [8 x i32]], [8 x [8 x i32]]* %2, i64 0, i64 %99
  %101 = load i32, i32* %6, align 4
  %102 = sext i32 %101 to i64
  %103 = getelementptr inbounds [8 x i32], [8 x i32]* %100, i64 0, i64 %102
  %104 = load i32, i32* %103, align 4
  %105 = icmp sgt i32 %97, %104
  br i1 %105, label %106, label %131

106:                                              ; preds = %89
  %107 = load i32, i32* %5, align 4
  %108 = sext i32 %107 to i64
  %109 = getelementptr inbounds [8 x [8 x i32]], [8 x [8 x i32]]* %2, i64 0, i64 %108
  %110 = load i32, i32* %6, align 4
  %111 = add nsw i32 %110, 1
  %112 = sext i32 %111 to i64
  %113 = getelementptr inbounds [8 x i32], [8 x i32]* %109, i64 0, i64 %112
  %114 = load i32, i32* %113, align 4
  %115 = load i32, i32* %10, align 4
  %116 = icmp sge i32 %114, %115
  br i1 %116, label %117, label %131

117:                                              ; preds = %106
  %118 = load i32, i32* %5, align 4
  %119 = sext i32 %118 to i64
  %120 = getelementptr inbounds [8 x [8 x i32]], [8 x [8 x i32]]* %2, i64 0, i64 %119
  %121 = load i32, i32* %6, align 4
  %122 = add nsw i32 %121, 1
  %123 = sext i32 %122 to i64
  %124 = getelementptr inbounds [8 x i32], [8 x i32]* %120, i64 0, i64 %123
  %125 = load i32, i32* %124, align 4
  store i32 %125, i32* %10, align 4
  %126 = load i32, i32* %6, align 4
  %127 = add nsw i32 %126, 1
  %128 = load i32, i32* %5, align 4
  %129 = sext i32 %128 to i64
  %130 = getelementptr inbounds [8 x i32], [8 x i32]* %3, i64 0, i64 %129
  store i32 %127, i32* %130, align 4
  br label %131

131:                                              ; preds = %117, %106, %89
  br label %132

132:                                              ; preds = %131
  %133 = load i32, i32* %6, align 4
  %134 = add nsw i32 %133, 1
  store i32 %134, i32* %6, align 4
  br label %45

135:                                              ; preds = %45
  store i32 0, i32* %10, align 4
  br label %136

136:                                              ; preds = %135
  %137 = load i32, i32* %5, align 4
  %138 = add nsw i32 %137, 1
  store i32 %138, i32* %5, align 4
  br label %40

139:                                              ; preds = %40
  store i32 0, i32* %5, align 4
  br label %140

140:                                              ; preds = %241, %139
  %141 = load i32, i32* %5, align 4
  %142 = load i32, i32* %9, align 4
  %143 = icmp slt i32 %141, %142
  br i1 %143, label %144, label %244

144:                                              ; preds = %140
  %145 = getelementptr inbounds [8 x [8 x i32]], [8 x [8 x i32]]* %2, i64 0, i64 0
  %146 = load i32, i32* %5, align 4
  %147 = sext i32 %146 to i64
  %148 = getelementptr inbounds [8 x i32], [8 x i32]* %145, i64 0, i64 %147
  %149 = load i32, i32* %148, align 4
  store i32 %149, i32* %12, align 4
  store i32 0, i32* %6, align 4
  br label %150

150:                                              ; preds = %237, %144
  %151 = load i32, i32* %6, align 4
  %152 = load i32, i32* %8, align 4
  %153 = sub nsw i32 %152, 1
  %154 = icmp slt i32 %151, %153
  br i1 %154, label %155, label %240

155:                                              ; preds = %150
  %156 = load i32, i32* %6, align 4
  %157 = sext i32 %156 to i64
  %158 = getelementptr inbounds [8 x [8 x i32]], [8 x [8 x i32]]* %2, i64 0, i64 %157
  %159 = load i32, i32* %5, align 4
  %160 = sext i32 %159 to i64
  %161 = getelementptr inbounds [8 x i32], [8 x i32]* %158, i64 0, i64 %160
  %162 = load i32, i32* %161, align 4
  %163 = load i32, i32* %6, align 4
  %164 = add nsw i32 %163, 1
  %165 = sext i32 %164 to i64
  %166 = getelementptr inbounds [8 x [8 x i32]], [8 x [8 x i32]]* %2, i64 0, i64 %165
  %167 = load i32, i32* %5, align 4
  %168 = sext i32 %167 to i64
  %169 = getelementptr inbounds [8 x i32], [8 x i32]* %166, i64 0, i64 %168
  %170 = load i32, i32* %169, align 4
  %171 = icmp sle i32 %162, %170
  br i1 %171, label %172, label %194

172:                                              ; preds = %155
  %173 = load i32, i32* %6, align 4
  %174 = sext i32 %173 to i64
  %175 = getelementptr inbounds [8 x [8 x i32]], [8 x [8 x i32]]* %2, i64 0, i64 %174
  %176 = load i32, i32* %5, align 4
  %177 = sext i32 %176 to i64
  %178 = getelementptr inbounds [8 x i32], [8 x i32]* %175, i64 0, i64 %177
  %179 = load i32, i32* %178, align 4
  %180 = load i32, i32* %12, align 4
  %181 = icmp sle i32 %179, %180
  br i1 %181, label %182, label %194

182:                                              ; preds = %172
  %183 = load i32, i32* %6, align 4
  %184 = sext i32 %183 to i64
  %185 = getelementptr inbounds [8 x [8 x i32]], [8 x [8 x i32]]* %2, i64 0, i64 %184
  %186 = load i32, i32* %5, align 4
  %187 = sext i32 %186 to i64
  %188 = getelementptr inbounds [8 x i32], [8 x i32]* %185, i64 0, i64 %187
  %189 = load i32, i32* %188, align 4
  store i32 %189, i32* %12, align 4
  %190 = load i32, i32* %6, align 4
  %191 = load i32, i32* %5, align 4
  %192 = sext i32 %191 to i64
  %193 = getelementptr inbounds [8 x i32], [8 x i32]* %4, i64 0, i64 %192
  store i32 %190, i32* %193, align 4
  br label %194

194:                                              ; preds = %182, %172, %155
  %195 = load i32, i32* %6, align 4
  %196 = add nsw i32 %195, 1
  %197 = sext i32 %196 to i64
  %198 = getelementptr inbounds [8 x [8 x i32]], [8 x [8 x i32]]* %2, i64 0, i64 %197
  %199 = load i32, i32* %5, align 4
  %200 = sext i32 %199 to i64
  %201 = getelementptr inbounds [8 x i32], [8 x i32]* %198, i64 0, i64 %200
  %202 = load i32, i32* %201, align 4
  %203 = load i32, i32* %6, align 4
  %204 = sext i32 %203 to i64
  %205 = getelementptr inbounds [8 x [8 x i32]], [8 x [8 x i32]]* %2, i64 0, i64 %204
  %206 = load i32, i32* %5, align 4
  %207 = sext i32 %206 to i64
  %208 = getelementptr inbounds [8 x i32], [8 x i32]* %205, i64 0, i64 %207
  %209 = load i32, i32* %208, align 4
  %210 = icmp slt i32 %202, %209
  br i1 %210, label %211, label %236

211:                                              ; preds = %194
  %212 = load i32, i32* %6, align 4
  %213 = add nsw i32 %212, 1
  %214 = sext i32 %213 to i64
  %215 = getelementptr inbounds [8 x [8 x i32]], [8 x [8 x i32]]* %2, i64 0, i64 %214
  %216 = load i32, i32* %5, align 4
  %217 = sext i32 %216 to i64
  %218 = getelementptr inbounds [8 x i32], [8 x i32]* %215, i64 0, i64 %217
  %219 = load i32, i32* %218, align 4
  %220 = load i32, i32* %12, align 4
  %221 = icmp sle i32 %219, %220
  br i1 %221, label %222, label %236

222:                                              ; preds = %211
  %223 = load i32, i32* %6, align 4
  %224 = add nsw i32 %223, 1
  %225 = sext i32 %224 to i64
  %226 = getelementptr inbounds [8 x [8 x i32]], [8 x [8 x i32]]* %2, i64 0, i64 %225
  %227 = load i32, i32* %5, align 4
  %228 = sext i32 %227 to i64
  %229 = getelementptr inbounds [8 x i32], [8 x i32]* %226, i64 0, i64 %228
  %230 = load i32, i32* %229, align 4
  store i32 %230, i32* %12, align 4
  %231 = load i32, i32* %6, align 4
  %232 = add nsw i32 %231, 1
  %233 = load i32, i32* %5, align 4
  %234 = sext i32 %233 to i64
  %235 = getelementptr inbounds [8 x i32], [8 x i32]* %4, i64 0, i64 %234
  store i32 %232, i32* %235, align 4
  br label %236

236:                                              ; preds = %222, %211, %194
  br label %237

237:                                              ; preds = %236
  %238 = load i32, i32* %6, align 4
  %239 = add nsw i32 %238, 1
  store i32 %239, i32* %6, align 4
  br label %150

240:                                              ; preds = %150
  br label %241

241:                                              ; preds = %240
  %242 = load i32, i32* %5, align 4
  %243 = add nsw i32 %242, 1
  store i32 %243, i32* %5, align 4
  br label %140

244:                                              ; preds = %140
  store i32 0, i32* %5, align 4
  br label %245

245:                                              ; preds = %268, %244
  %246 = load i32, i32* %5, align 4
  %247 = load i32, i32* %8, align 4
  %248 = icmp slt i32 %246, %247
  br i1 %248, label %249, label %271

249:                                              ; preds = %245
  %250 = load i32, i32* %5, align 4
  %251 = sext i32 %250 to i64
  %252 = getelementptr inbounds [8 x i32], [8 x i32]* %3, i64 0, i64 %251
  %253 = load i32, i32* %252, align 4
  store i32 %253, i32* %11, align 4
  %254 = load i32, i32* %11, align 4
  %255 = sext i32 %254 to i64
  %256 = getelementptr inbounds [8 x i32], [8 x i32]* %4, i64 0, i64 %255
  %257 = load i32, i32* %256, align 4
  %258 = load i32, i32* %5, align 4
  %259 = icmp eq i32 %257, %258
  br i1 %259, label %260, label %264

260:                                              ; preds = %249
  %261 = load i32, i32* %5, align 4
  %262 = load i32, i32* %11, align 4
  %263 = call i32 (i8*, ...) @printf(i8* getelementptr inbounds ([6 x i8], [6 x i8]* @.str.3, i64 0, i64 0), i32 %261, i32 %262)
  br label %267

264:                                              ; preds = %249
  %265 = load i32, i32* %7, align 4
  %266 = add nsw i32 %265, 1
  store i32 %266, i32* %7, align 4
  br label %267

267:                                              ; preds = %264, %260
  br label %268

268:                                              ; preds = %267
  %269 = load i32, i32* %5, align 4
  %270 = add nsw i32 %269, 1
  store i32 %270, i32* %5, align 4
  br label %245

271:                                              ; preds = %245
  %272 = load i32, i32* %7, align 4
  %273 = load i32, i32* %8, align 4
  %274 = icmp eq i32 %272, %273
  br i1 %274, label %275, label %277

275:                                              ; preds = %271
  %276 = call i32 (i8*, ...) @printf(i8* getelementptr inbounds ([3 x i8], [3 x i8]* @.str.4, i64 0, i64 0))
  br label %277

277:                                              ; preds = %275, %271
  ret i32 0
}

declare dso_local i32 @__isoc99_scanf(i8*, ...) #1

declare dso_local i32 @printf(i8*, ...) #1


!llvm.module.flags = !{!0}
!llvm.ident = !{!1}

!0 = !{i32 1, !"wchar_size", i32 4}
!1 = !{!"clang version 10.0.0-4ubuntu1 "}
